; ModuleID = '44/335.c'
source_filename = "44/335.c"
target datalayout = "e-m:e-p270:32:32-p271:32:32-p272:64:64-i64:64-f80:128-n8:16:32:64-S128"
target triple = "x86_64-pc-linux-gnu"

@.str = private unnamed_addr constant [3 x i8] c"%d\00", align 1
@.str.1 = private unnamed_addr constant [4 x i8] c"%d\0A\00", align 1

; Function Attrs: noinline nounwind uwtable
define dso_local i32 @transfer(i32 %0) #0 {
  %2 = alloca i32, align 4
  %3 = alloca i32, align 4
  %4 = alloca i32, align 4
  %5 = alloca i32, align 4
  store i32 %0, i32* %2, align 4
  store i32 0, i32* %3, align 4
  %6 = load i32, i32* %2, align 4
  %7 = srem i32 %6, 10
  %8 = load i32, i32* %3, align 4
  %9 = add nsw i32 %8, %7
  store i32 %9, i32* %3, align 4
  store i32 0, i32* %5, align 4
  br label %10

10:                                               ; preds = %26, %1
  %11 = load i32, i32* %5, align 4
  %12 = icmp slt i32 %11, 5
  br i1 %12, label %13, label %29

13:                                               ; preds = %10
  %14 = load i32, i32* %2, align 4
  %15 = sdiv i32 %14, 10
  store i32 %15, i32* %2, align 4
  %16 = load i32, i32* %2, align 4
  %17 = icmp ne i32 %16, 0
  br i1 %17, label %18, label %24

18:                                               ; preds = %13
  %19 = load i32, i32* %3, align 4
  %20 = mul nsw i32 %19, 10
  %21 = load i32, i32* %2, align 4
  %22 = srem i32 %21, 10
  %23 = add nsw i32 %20, %22
  store i32 %23, i32* %3, align 4
  br label %25

24:                                               ; preds = %13
  br label %29

25:                                               ; preds = %18
  br label %26

26:                                               ; preds = %25
  %27 = load i32, i32* %5, align 4
  %28 = add nsw i32 %27, 1
  store i32 %28, i32* %5, align 4
  br label %10

29:                                               ; preds = %24, %10
  %30 = load i32, i32* %3, align 4
  ret i32 %30
}

; Function Attrs: noinline nounwind uwtable
define dso_local i32 @main() #0 {
  %1 = alloca i32, align 4
  %2 = alloca i32, align 4
  %3 = alloca i32, align 4
  %4 = alloca i32, align 4
  store i32 0, i32* %1, align 4
  store i32 6, i32* %4, align 4
  br label %5

5:                                                ; preds = %8, %0
  %6 = load i32, i32* %4, align 4
  %7 = icmp sgt i32 %6, 0
  br i1 %7, label %8, label %15

8:                                                ; preds = %5
  %9 = call i32 (i8*, ...) @__isoc99_scanf(i8* getelementptr inbounds ([3 x i8], [3 x i8]* @.str, i64 0, i64 0), i32* %2)
  %10 = load i32, i32* %2, align 4
  %11 = call i32 @transfer(i32 %10)
  %12 = call i32 (i8*, ...) @printf(i8* getelementptr inbounds ([4 x i8], [4 x i8]* @.str.1, i64 0, i64 0), i32 %11)
  %13 = load i32, i32* %4, align 4
  %14 = add nsw i32 %13, -1
  store i32 %14, i32* %4, align 4
  br label %5

15:                                               ; preds = %5
  ret i32 0
}

declare dso_local i32 @__isoc99_scanf(i8*, ...) #1

declare dso_local i32 @printf(i8*, ...) #1


!llvm.module.flags = !{!0}
!llvm.ident = !{!1}

!0 = !{i32 1, !"wchar_size", i32 4}
!1 = !{!"clang version 10.0.0-4ubuntu1 "}
